target datalayout = "e-m:e-p270:32:32-p271:32:32-p272:64:64-i64:64-i128:128-f80:128-n8:16:32:64-S128"
target triple = "x86_64-pc-linux-gnu"

%struct.cli_bc_ctx = type { i8, i16, i32, ptr, ptr, i32, i32, ptr, ptr, ptr, i32, i32, i64, ptr, ptr, ptr, %struct.cli_bc_hooks, %struct.cli_exe_info, [64 x i32], [64 x i32], i32, ptr, ptr, i32, i32, i32, i32, ptr, i32, ptr, ptr, i32, i32, i32, i32, i32, i32, ptr, ptr, ptr, ptr, ptr, ptr, ptr, i32, i32, i32, i32, ptr, ptr, ptr, ptr, ptr, i32, i32, i32, i32, ptr, ptr, ptr, ptr, i32, i32, i32, ptr, i32, ptr, i32, i32, ptr, i32 }
%struct.cli_bc_hooks = type { ptr, ptr, ptr, ptr, ptr }
%struct.cli_exe_info = type { ptr, i32, i32, i16, i32, i32, %struct.cli_hashset, i32, i32, i32, i32, i32, i32, i32, i32, i32, %struct.pe_image_file_hdr, %union.anon, [16 x %struct.pe_image_data_dir] }
%struct.cli_hashset = type { ptr, ptr, ptr, i32, i32, i32, i32 }
%struct.pe_image_file_hdr = type { i32, i16, i16, i32, i32, i32, i16, i16 }
%union.anon = type { %struct.pe_image_optional_hdr64 }
%struct.pe_image_optional_hdr64 = type { i16, i8, i8, i32, i32, i32, i32, i32, i64, i32, i32, i16, i16, i16, i16, i16, i16, i32, i32, i32, i32, i16, i16, i64, i64, i64, i64, i32, i32 }
%struct.pe_image_data_dir = type { i32, i32 }
%struct.bc_buffer = type { ptr, i32, i32, i32 }
%struct.bc_inflate = type { %struct.z_stream_s, i32, i32, i8 }
%struct.z_stream_s = type { ptr, i32, i64, ptr, i32, i64, ptr, ptr, ptr, ptr, ptr, i32, i64, i64 }

@.str.49 = private unnamed_addr constant [46 x i8] c"bytecode api: inflate_init: invalid buffers!\0A\00", align 1
@.str.50 = private unnamed_addr constant [7 x i8] c"1.2.11\00", align 1
@.str.51 = private unnamed_addr constant [44 x i8] c"bytecode api: inflateInit2: out of memory!\0A\00", align 1
@.str.52 = private unnamed_addr constant [49 x i8] c"bytecode api: inflateinit2: zlib version error!\0A\00", align 1
@.str.53 = private unnamed_addr constant [48 x i8] c"bytecode api: inflateinit2: zlib stream error!\0A\00", align 1
@.str.54 = private unnamed_addr constant [46 x i8] c"bytecode api: inflateInit2: unknown error %d\0A\00", align 1
@.str.135 = private unnamed_addr constant [36 x i8] c"bytecode api: invalid buffer id %u\0A\00", align 1

; Function Attrs: nounwind uwtable
define internal ptr @get_buffer(ptr noundef %0, i32 noundef %1) #0 {
  %3 = alloca ptr, align 8
  %4 = alloca ptr, align 8
  %5 = alloca i32, align 4
  store ptr %0, ptr %4, align 8
  store i32 %1, ptr %5, align 4
  %6 = load ptr, ptr %4, align 8
  %7 = getelementptr inbounds %struct.cli_bc_ctx, ptr %6, i32 0, i32 52
  %8 = load ptr, ptr %7, align 8
  %9 = icmp ne ptr %8, null
  br i1 %9, label %10, label %19

10:                                               ; preds = %2
  %11 = load i32, ptr %5, align 4
  %12 = icmp slt i32 %11, 0
  br i1 %12, label %19, label %13

13:                                               ; preds = %10
  %14 = load i32, ptr %5, align 4
  %15 = load ptr, ptr %4, align 8
  %16 = getelementptr inbounds %struct.cli_bc_ctx, ptr %15, i32 0, i32 53
  %17 = load i32, ptr %16, align 8
  %18 = icmp uge i32 %14, %17
  br i1 %18, label %19, label %21

19:                                               ; preds = %13, %10, %2
  %20 = load i32, ptr %5, align 4
  call void (ptr, ...) @cli_dbgmsg(ptr noundef @.str.135, i32 noundef %20)
  store ptr null, ptr %3, align 8
  br label %28

21:                                               ; preds = %13
  %22 = load ptr, ptr %4, align 8
  %23 = getelementptr inbounds %struct.cli_bc_ctx, ptr %22, i32 0, i32 52
  %24 = load ptr, ptr %23, align 8
  %25 = load i32, ptr %5, align 4
  %26 = sext i32 %25 to i64
  %27 = getelementptr inbounds %struct.bc_buffer, ptr %24, i64 %26
  store ptr %27, ptr %3, align 8
  br label %28

28:                                               ; preds = %21, %19
  %29 = load ptr, ptr %3, align 8
  ret ptr %29
}

; Function Attrs: nounwind uwtable
define i32 @cli_bcapi_inflate_init(ptr noundef %0, i32 noundef %1, i32 noundef %2, i32 noundef %3) #0 {
  %5 = alloca i32, align 4
  %6 = alloca ptr, align 8
  %7 = alloca i32, align 4
  %8 = alloca i32, align 4
  %9 = alloca i32, align 4
  %10 = alloca i32, align 4
  %11 = alloca ptr, align 8
  %12 = alloca i32, align 4
  store ptr %0, ptr %6, align 8
  store i32 %1, ptr %7, align 4
  store i32 %2, ptr %8, align 4
  store i32 %3, ptr %9, align 4
  %13 = load ptr, ptr %6, align 8
  %14 = getelementptr inbounds %struct.cli_bc_ctx, ptr %13, i32 0, i32 34
  %15 = load i32, ptr %14, align 4
  %16 = add i32 %15, 1
  store i32 %16, ptr %12, align 4
  %17 = load ptr, ptr %6, align 8
  %18 = load i32, ptr %7, align 4
  %19 = call ptr @get_buffer(ptr noundef %17, i32 noundef %18)
  %20 = icmp ne ptr %19, null
  br i1 %20, label %21, label %26

21:                                               ; preds = %4
  %22 = load ptr, ptr %6, align 8
  %23 = load i32, ptr %8, align 4
  %24 = call ptr @get_buffer(ptr noundef %22, i32 noundef %23)
  %25 = icmp ne ptr %24, null
  br i1 %25, label %27, label %26

26:                                               ; preds = %21, %4
  call void (ptr, ...) @cli_dbgmsg(ptr noundef @.str.49)
  store i32 -1, ptr %5, align 4
  br label %74

27:                                               ; preds = %21
  %28 = load ptr, ptr %6, align 8
  %29 = getelementptr inbounds %struct.cli_bc_ctx, ptr %28, i32 0, i32 49
  %30 = load ptr, ptr %29, align 8
  %31 = load i32, ptr %12, align 4
  %32 = zext i32 %31 to i64
  %33 = mul i64 128, %32
  %34 = call ptr @cli_max_realloc(ptr noundef %30, i64 noundef %33)
  store ptr %34, ptr %11, align 8
  %35 = load ptr, ptr %11, align 8
  %36 = icmp ne ptr %35, null
  br i1 %36, label %38, label %37

37:                                               ; preds = %27
  store i32 -1, ptr %5, align 4
  br label %74

38:                                               ; preds = %27
  %39 = load ptr, ptr %11, align 8
  %40 = load ptr, ptr %6, align 8
  %41 = getelementptr inbounds %struct.cli_bc_ctx, ptr %40, i32 0, i32 49
  store ptr %39, ptr %41, align 8
  %42 = load i32, ptr %12, align 4
  %43 = load ptr, ptr %6, align 8
  %44 = getelementptr inbounds %struct.cli_bc_ctx, ptr %43, i32 0, i32 34
  store i32 %42, ptr %44, align 4
  %45 = load ptr, ptr %11, align 8
  %46 = load i32, ptr %12, align 4
  %47 = sub i32 %46, 1
  %48 = zext i32 %47 to i64
  %49 = getelementptr inbounds %struct.bc_inflate, ptr %45, i64 %48
  store ptr %49, ptr %11, align 8
  %50 = load i32, ptr %7, align 4
  %51 = load ptr, ptr %11, align 8
  %52 = getelementptr inbounds %struct.bc_inflate, ptr %51, i32 0, i32 1
  store i32 %50, ptr %52, align 8
  %53 = load i32, ptr %8, align 4
  %54 = load ptr, ptr %11, align 8
  %55 = getelementptr inbounds %struct.bc_inflate, ptr %54, i32 0, i32 2
  store i32 %53, ptr %55, align 4
  %56 = load ptr, ptr %11, align 8
  %57 = getelementptr inbounds %struct.bc_inflate, ptr %56, i32 0, i32 3
  store i8 0, ptr %57, align 8
  %58 = load ptr, ptr %11, align 8
  %59 = getelementptr inbounds %struct.bc_inflate, ptr %58, i32 0, i32 0
  call void @llvm.memset.p0.i64(ptr align 8 %59, i8 0, i64 112, i1 false)
  %60 = load ptr, ptr %11, align 8
  %61 = getelementptr inbounds %struct.bc_inflate, ptr %60, i32 0, i32 0
  %62 = load i32, ptr %9, align 4
  %63 = call i32 @inflateInit2_(ptr noundef %61, i32 noundef %62, ptr noundef @.str.50, i32 noundef 112)
  store i32 %63, ptr %10, align 4
  %64 = load i32, ptr %10, align 4
  switch i32 %64, label %69 [
    i32 -4, label %65
    i32 -6, label %66
    i32 -2, label %67
    i32 0, label %68
  ]

65:                                               ; preds = %38
  call void (ptr, ...) @cli_dbgmsg(ptr noundef @.str.51)
  store i32 -1, ptr %5, align 4
  br label %74

66:                                               ; preds = %38
  call void (ptr, ...) @cli_dbgmsg(ptr noundef @.str.52)
  store i32 -1, ptr %5, align 4
  br label %74

67:                                               ; preds = %38
  call void (ptr, ...) @cli_dbgmsg(ptr noundef @.str.53)
  store i32 -1, ptr %5, align 4
  br label %74

68:                                               ; preds = %38
  br label %71

69:                                               ; preds = %38
  %70 = load i32, ptr %10, align 4
  call void (ptr, ...) @cli_dbgmsg(ptr noundef @.str.54, i32 noundef %70)
  store i32 -1, ptr %5, align 4
  br label %74

71:                                               ; preds = %68
  %72 = load i32, ptr %12, align 4
  %73 = sub i32 %72, 1
  store i32 %73, ptr %5, align 4
  br label %74

74:                                               ; preds = %71, %69, %67, %66, %65, %37, %26
  %75 = load i32, ptr %5, align 4
  ret i32 %75
}