; Function Attrs: nounwind uwtable
define i32 @cli_bcapi_inflate_init(ptr nocapture noundef %0, i32 noundef %1, i32 noundef %2, i32 noundef %3) local_unnamed_addr #1 {
  %5 = getelementptr inbounds i8, ptr %0, i64 1108
  %6 = load i32, ptr %5, align 4
  %7 = add i32 %6, 1
  %8 = getelementptr inbounds i8, ptr %0, i64 1224
  %9 = load ptr, ptr %8, align 8
  %10 = icmp eq ptr %9, null
  %11 = icmp slt i32 %1, 0
  %or.cond.i = or i1 %11, %10
  br i1 %or.cond.i, label %get_buffer.exit.thread, label %12

12:                                               ; preds = %4
  %13 = getelementptr inbounds i8, ptr %0, i64 1232
  %14 = load i32, ptr %13, align 8
  %.not.i = icmp ugt i32 %14, %1
  br i1 %.not.i, label %get_buffer.exit, label %get_buffer.exit.thread

get_buffer.exit:                                  ; preds = %12
  %15 = icmp sgt i32 %2, -1
  %.not.i29 = icmp ugt i32 %14, %2
  %or.cond = and i1 %15, %.not.i29
  br i1 %or.cond, label %get_buffer.exit31, label %get_buffer.exit.thread

get_buffer.exit.thread:                           ; preds = %get_buffer.exit, %12, %4
  %.sink = phi i32 [ %1, %4 ], [ %1, %12 ], [ %2, %get_buffer.exit ]
  tail call void (ptr, ...) @cli_dbgmsg(ptr noundef nonnull @.str.135, i32 noundef %.sink) #29
  tail call void (ptr, ...) @cli_dbgmsg(ptr noundef nonnull @.str.49) #29
  br label %32

get_buffer.exit31:                                ; preds = %get_buffer.exit
  %16 = getelementptr inbounds i8, ptr %0, i64 1200
  %17 = load ptr, ptr %16, align 8
  %18 = zext i32 %7 to i64
  %19 = shl nuw nsw i64 %18, 7
  %20 = tail call ptr @cli_max_realloc(ptr noundef %17, i64 noundef %19) #29
  %.not27 = icmp eq ptr %20, null
  br i1 %.not27, label %32, label %21

21:                                               ; preds = %get_buffer.exit31
  store ptr %20, ptr %16, align 8
  store i32 %7, ptr %5, align 4
  %22 = zext i32 %6 to i64
  %23 = getelementptr inbounds %struct.bc_inflate, ptr %20, i64 %22
  %24 = getelementptr inbounds i8, ptr %23, i64 112
  store i32 %1, ptr %24, align 8
  %25 = getelementptr inbounds i8, ptr %23, i64 116
  store i32 %2, ptr %25, align 4
  %26 = getelementptr inbounds i8, ptr %23, i64 120
  store i8 0, ptr %26, align 8
  tail call void @llvm.memset.p0.i64(ptr noundef nonnull align 8 dereferenceable(112) %23, i8 0, i64 112, i1 false)
  %27 = tail call i32 @inflateInit2_(ptr noundef nonnull %23, i32 noundef %3, ptr noundef nonnull @.str.50, i32 noundef 112) #29
  switch i32 %27, label %31 [
    i32 -4, label %28
    i32 -6, label %29
    i32 -2, label %30
    i32 0, label %32
  ]

28:                                               ; preds = %21
  tail call void (ptr, ...) @cli_dbgmsg(ptr noundef nonnull @.str.51) #29
  br label %32

29:                                               ; preds = %21
  tail call void (ptr, ...) @cli_dbgmsg(ptr noundef nonnull @.str.52) #29
  br label %32

30:                                               ; preds = %21
  tail call void (ptr, ...) @cli_dbgmsg(ptr noundef nonnull @.str.53) #29
  br label %32

31:                                               ; preds = %21
  tail call void (ptr, ...) @cli_dbgmsg(ptr noundef nonnull @.str.54, i32 noundef %27) #29
  br label %32

32:                                               ; preds = %21, %get_buffer.exit31, %31, %30, %29, %28, %get_buffer.exit.thread
  %.0 = phi i32 [ -1, %31 ], [ -1, %30 ], [ -1, %29 ], [ -1, %28 ], [ -1, %get_buffer.exit.thread ], [ -1, %get_buffer.exit31 ], [ %6, %21 ]
  ret i32 %.0
}